target datalayout = "e-m:e-p270:32:32-p271:32:32-p272:64:64-i64:64-i128:128-f80:128-n8:16:32:64-S128"
target triple = "x86_64-pc-linux-gnu"

%struct.dt_pthread_mutex_t = type { %union.pthread_mutex_t }
%union.pthread_mutex_t = type { %struct.__pthread_mutex_s }
%struct.__pthread_mutex_s = type { i32, i32, i32, i32, i32, i16, i16, %struct.__pthread_internal_list }
%struct.__pthread_internal_list = type { ptr, ptr }
%struct.dt_dev_pixelpipe_t = type { %struct.dt_dev_pixelpipe_cache_t, i32, i64, ptr, i32, i32, float, i32, i32, [12 x i8], %struct.dt_iop_buffer_dsc_t, ptr, ptr, ptr, ptr, i32, i32, i32, i32, ptr, i64, i32, i32, float, float, float, i64, %struct.dt_pthread_mutex_t, %struct.dt_pthread_mutex_t, %struct.dt_pthread_mutex_t, i32, i32, i32, %struct.dt_dev_detail_mask_t, i32, i32, i32, i32, i32, i32, i32, i32, i32, i32, i32, i32, i32, i32, [8 x i8], %struct.dt_image_t, i32, ptr, i32, ptr, ptr, ptr, i32, ptr, i64, [8 x i8] }
%struct.dt_dev_pixelpipe_cache_t = type { i32, i64, i64, ptr, ptr, ptr, ptr, ptr, ptr, i64, i32, i64, i64, i32, i32, i32 }
%struct.dt_iop_buffer_dsc_t = type { i32, i32, i32, [6 x [6 x i8]], %struct.anon, [12 x i8], %struct.anon.0, [4 x float], i32, [12 x i8] }
%struct.anon = type { i16, i16 }
%struct.anon.0 = type { i32, [12 x i8], [4 x float] }
%struct.dt_dev_detail_mask_t = type { %struct.dt_iop_roi_t, i64, ptr }
%struct.dt_iop_roi_t = type { i32, i32, i32, i32, float }
%struct.dt_image_t = type { i32, i32, float, float, float, float, float, float, float, [64 x i8], [64 x i8], [128 x i8], [64 x i8], [64 x i8], [64 x i8], [64 x i8], i64, i32, %union.dt_image_correction_data_t, [64 x i8], [64 x i8], [64 x i8], [128 x i8], i32, [256 x i8], i32, i32, i32, i32, i32, i32, i32, i32, i32, i32, float, i32, i32, i32, i32, i32, i32, i64, i64, i64, i64, i32, [12 x i8], %struct.dt_iop_buffer_dsc_t, [9 x float], ptr, i32, i32, %struct.dt_image_raw_parameters_t, %struct.dt_image_geoloc_t, %struct._color_harmony_t, i16, [4 x i16], i32, i32, float, float, [4 x float], [4 x [3 x float]], [4 x float], ptr, ptr, i32, i32, [8 x i8] }
%union.dt_image_correction_data_t = type { %struct.anon.2 }
%struct.anon.2 = type { i32, float, [11 x float], [11 x float], [11 x float], [11 x float], [11 x float] }
%struct.dt_image_raw_parameters_t = type { i32 }
%struct.dt_image_geoloc_t = type { double, double, double }
%struct._color_harmony_t = type { i32, i32, i32 }

; Function Attrs: nounwind uwtable
define i32 @dt_dev_pixelpipe_cache_available(ptr noundef %0, i64 noundef %1, i64 noundef %2) #0 {
  %4 = alloca i32, align 4
  %5 = alloca ptr, align 8
  %6 = alloca i64, align 8
  %7 = alloca i64, align 8
  %8 = alloca ptr, align 8
  %9 = alloca i32, align 4
  %10 = alloca i32, align 4
  store ptr %0, ptr %5, align 8, !tbaa !6
  store i64 %1, ptr %6, align 8, !tbaa !13
  store i64 %2, ptr %7, align 8, !tbaa !13
  %11 = load ptr, ptr %5, align 8, !tbaa !6
  %12 = getelementptr inbounds nuw %struct.dt_dev_pixelpipe_t, ptr %11, i32 0, i32 41
  %13 = load i32, ptr %12, align 4, !tbaa !132
  %14 = icmp ne i32 %13, 0
  br i1 %14, label %23, label %15

15:                                               ; preds = %3
  %16 = load ptr, ptr %5, align 8, !tbaa !6
  %17 = getelementptr inbounds nuw %struct.dt_dev_pixelpipe_t, ptr %16, i32 0, i32 34
  %18 = load i32, ptr %17, align 16, !tbaa !133
  %19 = icmp ne i32 %18, 0
  br i1 %19, label %23, label %20

20:                                               ; preds = %15
  %21 = load i64, ptr %6, align 8, !tbaa !13
  %22 = icmp eq i64 %21, 0
  br i1 %22, label %23, label %24

23:                                               ; preds = %20, %15, %3
  store i32 0, ptr %4, align 4
  br label %71

24:                                               ; preds = %20
  call void @llvm.lifetime.start.p0(i64 8, ptr %8) #17
  %25 = load ptr, ptr %5, align 8, !tbaa !6
  %26 = getelementptr inbounds nuw %struct.dt_dev_pixelpipe_t, ptr %25, i32 0, i32 0
  store ptr %26, ptr %8, align 8, !tbaa !15
  %27 = load ptr, ptr %8, align 8, !tbaa !15
  %28 = getelementptr inbounds nuw %struct.dt_dev_pixelpipe_cache_t, ptr %27, i32 0, i32 11
  %29 = load i64, ptr %28, align 8, !tbaa !22
  %30 = add i64 %29, 1
  store i64 %30, ptr %28, align 8, !tbaa !22
  call void @llvm.lifetime.start.p0(i64 4, ptr %9) #17
  store i32 2, ptr %9, align 4, !tbaa !11
  br label %31

31:                                               ; preds = %64, %24
  %32 = load i32, ptr %9, align 4, !tbaa !11
  %33 = load ptr, ptr %8, align 8, !tbaa !15
  %34 = getelementptr inbounds nuw %struct.dt_dev_pixelpipe_cache_t, ptr %33, i32 0, i32 0
  %35 = load i32, ptr %34, align 8, !tbaa !17
  %36 = icmp slt i32 %32, %35
  br i1 %36, label %38, label %37

37:                                               ; preds = %31
  store i32 2, ptr %10, align 4
  br label %67

38:                                               ; preds = %31
  %39 = load ptr, ptr %8, align 8, !tbaa !15
  %40 = getelementptr inbounds nuw %struct.dt_dev_pixelpipe_cache_t, ptr %39, i32 0, i32 4
  %41 = load ptr, ptr %40, align 8, !tbaa !28
  %42 = load i32, ptr %9, align 4, !tbaa !11
  %43 = sext i32 %42 to i64
  %44 = getelementptr inbounds i64, ptr %41, i64 %43
  %45 = load i64, ptr %44, align 8, !tbaa !13
  %46 = load i64, ptr %7, align 8, !tbaa !13
  %47 = icmp eq i64 %45, %46
  br i1 %47, label %48, label %63

48:                                               ; preds = %38
  %49 = load ptr, ptr %8, align 8, !tbaa !15
  %50 = getelementptr inbounds nuw %struct.dt_dev_pixelpipe_cache_t, ptr %49, i32 0, i32 6
  %51 = load ptr, ptr %50, align 8, !tbaa !30
  %52 = load i32, ptr %9, align 4, !tbaa !11
  %53 = sext i32 %52 to i64
  %54 = getelementptr inbounds i64, ptr %51, i64 %53
  %55 = load i64, ptr %54, align 8, !tbaa !13
  %56 = load i64, ptr %6, align 8, !tbaa !13
  %57 = icmp eq i64 %55, %56
  br i1 %57, label %58, label %63

58:                                               ; preds = %48
  %59 = load ptr, ptr %8, align 8, !tbaa !15
  %60 = getelementptr inbounds nuw %struct.dt_dev_pixelpipe_cache_t, ptr %59, i32 0, i32 12
  %61 = load i64, ptr %60, align 8, !tbaa !24
  %62 = add i64 %61, 1
  store i64 %62, ptr %60, align 8, !tbaa !24
  store i32 1, ptr %4, align 4
  store i32 1, ptr %10, align 4
  br label %67

63:                                               ; preds = %48, %38
  br label %64

64:                                               ; preds = %63
  %65 = load i32, ptr %9, align 4, !tbaa !11
  %66 = add nsw i32 %65, 1
  store i32 %66, ptr %9, align 4, !tbaa !11
  br label %31

67:                                               ; preds = %58, %37
  call void @llvm.lifetime.end.p0(i64 4, ptr %9) #17
  %68 = load i32, ptr %10, align 4
  switch i32 %68, label %70 [
    i32 2, label %69
  ]

69:                                               ; preds = %67
  store i32 0, ptr %4, align 4
  store i32 1, ptr %10, align 4
  br label %70

70:                                               ; preds = %69, %67
  call void @llvm.lifetime.end.p0(i64 8, ptr %8) #17
  br label %71

71:                                               ; preds = %70, %23
  %72 = load i32, ptr %4, align 4
  ret i32 %72
}