; Function Attrs: nofree norecurse nosync nounwind memory(read, argmem: readwrite, inaccessiblemem: none) uwtable
define range(i32 0, 2) i32 @dt_dev_pixelpipe_cache_available(ptr noundef captures(none) %0, i64 noundef %1, i64 noundef %2) local_unnamed_addr #6 {
  %4 = getelementptr inbounds nuw i8, ptr %0, i64 604
  %5 = load i32, ptr %4, align 4, !tbaa !121
  %.not = icmp eq i32 %5, 0
  br i1 %.not, label %6, label %.loopexit

6:                                                ; preds = %3
  %7 = getelementptr inbounds nuw i8, ptr %0, i64 576
  %8 = load i32, ptr %7, align 16, !tbaa !122
  %9 = icmp ne i32 %8, 0
  %10 = icmp eq i64 %1, 0
  %or.cond = or i1 %10, %9
  br i1 %or.cond, label %.loopexit, label %11

11:                                               ; preds = %6
  %12 = getelementptr inbounds nuw i8, ptr %0, i64 88
  %13 = load i64, ptr %12, align 8, !tbaa !82
  %14 = add i64 %13, 1
  store i64 %14, ptr %12, align 8, !tbaa !82
  %15 = load i32, ptr %0, align 8, !tbaa !6
  %.not2023 = icmp sgt i32 %15, 2
  br i1 %.not2023, label %.lr.ph, label %.loopexit

.lr.ph:                                           ; preds = %11
  %16 = getelementptr inbounds nuw i8, ptr %0, i64 32
  %17 = load ptr, ptr %16, align 8, !tbaa !20
  %18 = getelementptr inbounds nuw i8, ptr %0, i64 48
  %wide.trip.count = zext nneg i32 %15 to i64
  br label %19

19:                                               ; preds = %.lr.ph, %32
  %indvars.iv = phi i64 [ 2, %.lr.ph ], [ %indvars.iv.next, %32 ]
  %20 = getelementptr inbounds nuw i64, ptr %17, i64 %indvars.iv
  %21 = load i64, ptr %20, align 8, !tbaa !25
  %22 = icmp eq i64 %21, %2
  br i1 %22, label %23, label %32

23:                                               ; preds = %19
  %24 = load ptr, ptr %18, align 8, !tbaa !22
  %25 = getelementptr inbounds nuw i64, ptr %24, i64 %indvars.iv
  %26 = load i64, ptr %25, align 8, !tbaa !25
  %27 = icmp eq i64 %26, %1
  br i1 %27, label %28, label %32

28:                                               ; preds = %23
  %29 = getelementptr inbounds nuw i8, ptr %0, i64 96
  %30 = load i64, ptr %29, align 8, !tbaa !80
  %31 = add i64 %30, 1
  store i64 %31, ptr %29, align 8, !tbaa !80
  br label %.loopexit

32:                                               ; preds = %19, %23
  %indvars.iv.next = add nuw nsw i64 %indvars.iv, 1
  %exitcond.not = icmp eq i64 %indvars.iv.next, %wide.trip.count
  br i1 %exitcond.not, label %.loopexit, label %19

.loopexit:                                        ; preds = %32, %28, %11, %3, %6
  %.018 = phi i32 [ 0, %6 ], [ 0, %3 ], [ 1, %28 ], [ 0, %11 ], [ 0, %32 ]
  ret i32 %.018
}